target datalayout = "e-m:e-p270:32:32-p271:32:32-p272:64:64-i64:64-i128:128-f80:128-n8:16:32:64-S128"
target triple = "x86_64-pc-linux-gnu"

; Function Attrs: mustprogress nounwind uwtable
define internal noundef i32 @_ZL5ShiftPhit(ptr noundef %0, i32 noundef %1, i16 noundef zeroext %2) #0 {
  %4 = alloca i32, align 4
  %5 = alloca ptr, align 8
  %6 = alloca i32, align 4
  %7 = alloca i16, align 2
  %8 = alloca i32, align 4
  %9 = alloca i32, align 4
  store ptr %0, ptr %5, align 8, !tbaa !3
  store i32 %1, ptr %6, align 4, !tbaa !8
  store i16 %2, ptr %7, align 2, !tbaa !19
  call void @llvm.lifetime.start.p0(i64 4, ptr %8) #3
  %10 = load i16, ptr %7, align 2, !tbaa !19
  %11 = zext i16 %10 to i32
  %12 = and i32 %11, 32767
  %13 = load i16, ptr %7, align 2, !tbaa !19
  %14 = zext i16 %13 to i32
  %15 = and i32 %14, 32768
  %16 = sub i32 16777216, %15
  %17 = add i32 %12, %16
  store i32 %17, ptr %8, align 4, !tbaa !8
  %18 = load ptr, ptr %5, align 8, !tbaa !3
  %19 = getelementptr inbounds i8, ptr %18, i64 0
  %20 = load i8, ptr %19, align 1, !tbaa !18
  %21 = zext i8 %20 to i32
  %22 = icmp slt i32 %21, 128
  br i1 %22, label %23, label %35

23:                                               ; preds = %3
  %24 = load ptr, ptr %5, align 8, !tbaa !3
  %25 = getelementptr inbounds i8, ptr %24, i64 0
  %26 = load i8, ptr %25, align 1, !tbaa !18
  %27 = zext i8 %26 to i32
  %28 = load i32, ptr %8, align 4, !tbaa !8
  %29 = add i32 %28, %27
  store i32 %29, ptr %8, align 4, !tbaa !8
  %30 = load i32, ptr %8, align 4, !tbaa !8
  %31 = and i32 %30, 127
  %32 = trunc i32 %31 to i8
  %33 = load ptr, ptr %5, align 8, !tbaa !3
  %34 = getelementptr inbounds i8, ptr %33, i64 0
  store i8 %32, ptr %34, align 1, !tbaa !18
  store i32 1, ptr %4, align 4
  store i32 1, ptr %9, align 4
  br label %235

35:                                               ; preds = %3
  %36 = load ptr, ptr %5, align 8, !tbaa !3
  %37 = getelementptr inbounds i8, ptr %36, i64 0
  %38 = load i8, ptr %37, align 1, !tbaa !18
  %39 = zext i8 %38 to i32
  %40 = icmp slt i32 %39, 192
  br i1 %40, label %41, label %42

41:                                               ; preds = %35
  store i32 1, ptr %4, align 4
  store i32 1, ptr %9, align 4
  br label %235

42:                                               ; preds = %35
  %43 = load ptr, ptr %5, align 8, !tbaa !3
  %44 = getelementptr inbounds i8, ptr %43, i64 0
  %45 = load i8, ptr %44, align 1, !tbaa !18
  %46 = zext i8 %45 to i32
  %47 = icmp slt i32 %46, 224
  br i1 %47, label %48, label %85

48:                                               ; preds = %42
  %49 = load i32, ptr %6, align 4, !tbaa !8
  %50 = icmp slt i32 %49, 2
  br i1 %50, label %51, label %52

51:                                               ; preds = %48
  store i32 1, ptr %4, align 4
  store i32 1, ptr %9, align 4
  br label %235

52:                                               ; preds = %48
  %53 = load ptr, ptr %5, align 8, !tbaa !3
  %54 = getelementptr inbounds i8, ptr %53, i64 1
  %55 = load i8, ptr %54, align 1, !tbaa !18
  %56 = zext i8 %55 to i32
  %57 = and i32 %56, 63
  %58 = load ptr, ptr %5, align 8, !tbaa !3
  %59 = getelementptr inbounds i8, ptr %58, i64 0
  %60 = load i8, ptr %59, align 1, !tbaa !18
  %61 = zext i8 %60 to i32
  %62 = and i32 %61, 31
  %63 = shl i32 %62, 6
  %64 = or i32 %57, %63
  %65 = load i32, ptr %8, align 4, !tbaa !8
  %66 = add i32 %65, %64
  store i32 %66, ptr %8, align 4, !tbaa !8
  %67 = load i32, ptr %8, align 4, !tbaa !8
  %68 = lshr i32 %67, 6
  %69 = and i32 %68, 31
  %70 = or i32 192, %69
  %71 = trunc i32 %70 to i8
  %72 = load ptr, ptr %5, align 8, !tbaa !3
  %73 = getelementptr inbounds i8, ptr %72, i64 0
  store i8 %71, ptr %73, align 1, !tbaa !18
  %74 = load ptr, ptr %5, align 8, !tbaa !3
  %75 = getelementptr inbounds i8, ptr %74, i64 1
  %76 = load i8, ptr %75, align 1, !tbaa !18
  %77 = zext i8 %76 to i32
  %78 = and i32 %77, 192
  %79 = load i32, ptr %8, align 4, !tbaa !8
  %80 = and i32 %79, 63
  %81 = or i32 %78, %80
  %82 = trunc i32 %81 to i8
  %83 = load ptr, ptr %5, align 8, !tbaa !3
  %84 = getelementptr inbounds i8, ptr %83, i64 1
  store i8 %82, ptr %84, align 1, !tbaa !18
  store i32 2, ptr %4, align 4
  store i32 1, ptr %9, align 4
  br label %235

85:                                               ; preds = %42
  %86 = load ptr, ptr %5, align 8, !tbaa !3
  %87 = getelementptr inbounds i8, ptr %86, i64 0
  %88 = load i8, ptr %87, align 1, !tbaa !18
  %89 = zext i8 %88 to i32
  %90 = icmp slt i32 %89, 240
  br i1 %90, label %91, label %148

91:                                               ; preds = %85
  %92 = load i32, ptr %6, align 4, !tbaa !8
  %93 = icmp slt i32 %92, 3
  br i1 %93, label %94, label %96

94:                                               ; preds = %91
  %95 = load i32, ptr %6, align 4, !tbaa !8
  store i32 %95, ptr %4, align 4
  store i32 1, ptr %9, align 4
  br label %235

96:                                               ; preds = %91
  %97 = load ptr, ptr %5, align 8, !tbaa !3
  %98 = getelementptr inbounds i8, ptr %97, i64 2
  %99 = load i8, ptr %98, align 1, !tbaa !18
  %100 = zext i8 %99 to i32
  %101 = and i32 %100, 63
  %102 = load ptr, ptr %5, align 8, !tbaa !3
  %103 = getelementptr inbounds i8, ptr %102, i64 1
  %104 = load i8, ptr %103, align 1, !tbaa !18
  %105 = zext i8 %104 to i32
  %106 = and i32 %105, 63
  %107 = shl i32 %106, 6
  %108 = or i32 %101, %107
  %109 = load ptr, ptr %5, align 8, !tbaa !3
  %110 = getelementptr inbounds i8, ptr %109, i64 0
  %111 = load i8, ptr %110, align 1, !tbaa !18
  %112 = zext i8 %111 to i32
  %113 = and i32 %112, 15
  %114 = shl i32 %113, 12
  %115 = or i32 %108, %114
  %116 = load i32, ptr %8, align 4, !tbaa !8
  %117 = add i32 %116, %115
  store i32 %117, ptr %8, align 4, !tbaa !8
  %118 = load i32, ptr %8, align 4, !tbaa !8
  %119 = lshr i32 %118, 12
  %120 = and i32 %119, 15
  %121 = or i32 224, %120
  %122 = trunc i32 %121 to i8
  %123 = load ptr, ptr %5, align 8, !tbaa !3
  %124 = getelementptr inbounds i8, ptr %123, i64 0
  store i8 %122, ptr %124, align 1, !tbaa !18
  %125 = load ptr, ptr %5, align 8, !tbaa !3
  %126 = getelementptr inbounds i8, ptr %125, i64 1
  %127 = load i8, ptr %126, align 1, !tbaa !18
  %128 = zext i8 %127 to i32
  %129 = and i32 %128, 192
  %130 = load i32, ptr %8, align 4, !tbaa !8
  %131 = lshr i32 %130, 6
  %132 = and i32 %131, 63
  %133 = or i32 %129, %132
  %134 = trunc i32 %133 to i8
  %135 = load ptr, ptr %5, align 8, !tbaa !3
  %136 = getelementptr inbounds i8, ptr %135, i64 1
  store i8 %134, ptr %136, align 1, !tbaa !18
  %137 = load ptr, ptr %5, align 8, !tbaa !3
  %138 = getelementptr inbounds i8, ptr %137, i64 2
  %139 = load i8, ptr %138, align 1, !tbaa !18
  %140 = zext i8 %139 to i32
  %141 = and i32 %140, 192
  %142 = load i32, ptr %8, align 4, !tbaa !8
  %143 = and i32 %142, 63
  %144 = or i32 %141, %143
  %145 = trunc i32 %144 to i8
  %146 = load ptr, ptr %5, align 8, !tbaa !3
  %147 = getelementptr inbounds i8, ptr %146, i64 2
  store i8 %145, ptr %147, align 1, !tbaa !18
  store i32 3, ptr %4, align 4
  store i32 1, ptr %9, align 4
  br label %235

148:                                              ; preds = %85
  %149 = load ptr, ptr %5, align 8, !tbaa !3
  %150 = getelementptr inbounds i8, ptr %149, i64 0
  %151 = load i8, ptr %150, align 1, !tbaa !18
  %152 = zext i8 %151 to i32
  %153 = icmp slt i32 %152, 248
  br i1 %153, label %154, label %230

154:                                              ; preds = %148
  %155 = load i32, ptr %6, align 4, !tbaa !8
  %156 = icmp slt i32 %155, 4
  br i1 %156, label %157, label %159

157:                                              ; preds = %154
  %158 = load i32, ptr %6, align 4, !tbaa !8
  store i32 %158, ptr %4, align 4
  store i32 1, ptr %9, align 4
  br label %235

159:                                              ; preds = %154
  %160 = load ptr, ptr %5, align 8, !tbaa !3
  %161 = getelementptr inbounds i8, ptr %160, i64 3
  %162 = load i8, ptr %161, align 1, !tbaa !18
  %163 = zext i8 %162 to i32
  %164 = and i32 %163, 63
  %165 = load ptr, ptr %5, align 8, !tbaa !3
  %166 = getelementptr inbounds i8, ptr %165, i64 2
  %167 = load i8, ptr %166, align 1, !tbaa !18
  %168 = zext i8 %167 to i32
  %169 = and i32 %168, 63
  %170 = shl i32 %169, 6
  %171 = or i32 %164, %170
  %172 = load ptr, ptr %5, align 8, !tbaa !3
  %173 = getelementptr inbounds i8, ptr %172, i64 1
  %174 = load i8, ptr %173, align 1, !tbaa !18
  %175 = zext i8 %174 to i32
  %176 = and i32 %175, 63
  %177 = shl i32 %176, 12
  %178 = or i32 %171, %177
  %179 = load ptr, ptr %5, align 8, !tbaa !3
  %180 = getelementptr inbounds i8, ptr %179, i64 0
  %181 = load i8, ptr %180, align 1, !tbaa !18
  %182 = zext i8 %181 to i32
  %183 = and i32 %182, 7
  %184 = shl i32 %183, 18
  %185 = or i32 %178, %184
  %186 = load i32, ptr %8, align 4, !tbaa !8
  %187 = add i32 %186, %185
  store i32 %187, ptr %8, align 4, !tbaa !8
  %188 = load i32, ptr %8, align 4, !tbaa !8
  %189 = lshr i32 %188, 18
  %190 = and i32 %189, 7
  %191 = or i32 240, %190
  %192 = trunc i32 %191 to i8
  %193 = load ptr, ptr %5, align 8, !tbaa !3
  %194 = getelementptr inbounds i8, ptr %193, i64 0
  store i8 %192, ptr %194, align 1, !tbaa !18
  %195 = load ptr, ptr %5, align 8, !tbaa !3
  %196 = getelementptr inbounds i8, ptr %195, i64 1
  %197 = load i8, ptr %196, align 1, !tbaa !18
  %198 = zext i8 %197 to i32
  %199 = and i32 %198, 192
  %200 = load i32, ptr %8, align 4, !tbaa !8
  %201 = lshr i32 %200, 12
  %202 = and i32 %201, 63
  %203 = or i32 %199, %202
  %204 = trunc i32 %203 to i8
  %205 = load ptr, ptr %5, align 8, !tbaa !3
  %206 = getelementptr inbounds i8, ptr %205, i64 1
  store i8 %204, ptr %206, align 1, !tbaa !18
  %207 = load ptr, ptr %5, align 8, !tbaa !3
  %208 = getelementptr inbounds i8, ptr %207, i64 2
  %209 = load i8, ptr %208, align 1, !tbaa !18
  %210 = zext i8 %209 to i32
  %211 = and i32 %210, 192
  %212 = load i32, ptr %8, align 4, !tbaa !8
  %213 = lshr i32 %212, 6
  %214 = and i32 %213, 63
  %215 = or i32 %211, %214
  %216 = trunc i32 %215 to i8
  %217 = load ptr, ptr %5, align 8, !tbaa !3
  %218 = getelementptr inbounds i8, ptr %217, i64 2
  store i8 %216, ptr %218, align 1, !tbaa !18
  %219 = load ptr, ptr %5, align 8, !tbaa !3
  %220 = getelementptr inbounds i8, ptr %219, i64 3
  %221 = load i8, ptr %220, align 1, !tbaa !18
  %222 = zext i8 %221 to i32
  %223 = and i32 %222, 192
  %224 = load i32, ptr %8, align 4, !tbaa !8
  %225 = and i32 %224, 63
  %226 = or i32 %223, %225
  %227 = trunc i32 %226 to i8
  %228 = load ptr, ptr %5, align 8, !tbaa !3
  %229 = getelementptr inbounds i8, ptr %228, i64 3
  store i8 %227, ptr %229, align 1, !tbaa !18
  store i32 4, ptr %4, align 4
  store i32 1, ptr %9, align 4
  br label %235

230:                                              ; preds = %148
  br label %231

231:                                              ; preds = %230
  br label %232

232:                                              ; preds = %231
  br label %233

233:                                              ; preds = %232
  br label %234

234:                                              ; preds = %233
  store i32 1, ptr %4, align 4
  store i32 1, ptr %9, align 4
  br label %235

235:                                              ; preds = %234, %159, %157, %96, %94, %52, %51, %41, %23
  call void @llvm.lifetime.end.p0(i64 4, ptr %8) #3
  %236 = load i32, ptr %4, align 4
  ret i32 %236
}