; Function Attrs: mustprogress nofree norecurse nosync nounwind willreturn memory(argmem: readwrite) uwtable
define internal fastcc noundef range(i32 -2147483648, 5) i32 @_ZL5ShiftPhit(ptr noundef captures(none) %0, i32 noundef %1, i16 noundef zeroext %2) unnamed_addr #2 {
  %4 = zext i16 %2 to i32
  %5 = and i32 %4, 32767
  %6 = and i32 %4, 32768
  %reass.sub = sub nsw i32 %5, %6
  %7 = add nsw i32 %reass.sub, 16777216
  %8 = load i8, ptr %0, align 1, !tbaa !14
  %9 = zext i8 %8 to i32
  %10 = icmp sgt i8 %8, -1
  br i1 %10, label %11, label %15

11:                                               ; preds = %3
  %12 = trunc i16 %2 to i8
  %13 = add i8 %8, %12
  %14 = and i8 %13, 127
  store i8 %14, ptr %0, align 1, !tbaa !14
  br label %113

15:                                               ; preds = %3
  %16 = icmp samesign ult i8 %8, -64
  br i1 %16, label %113, label %17

17:                                               ; preds = %15
  %18 = icmp samesign ult i8 %8, -32
  br i1 %18, label %19, label %38

19:                                               ; preds = %17
  %20 = icmp slt i32 %1, 2
  br i1 %20, label %113, label %21

21:                                               ; preds = %19
  %22 = getelementptr inbounds nuw i8, ptr %0, i64 1
  %23 = load i8, ptr %22, align 1, !tbaa !14
  %24 = and i8 %23, 63
  %25 = zext nneg i8 %24 to i32
  %26 = shl nuw nsw i32 %9, 6
  %27 = and i32 %26, 1984
  %28 = or disjoint i32 %27, %25
  %29 = add nuw nsw i32 %28, %7
  %30 = lshr i32 %29, 6
  %31 = trunc i32 %30 to i8
  %32 = and i8 %31, 31
  %33 = or disjoint i8 %32, -64
  store i8 %33, ptr %0, align 1, !tbaa !14
  %34 = and i8 %23, -64
  %35 = trunc i32 %29 to i8
  %36 = and i8 %35, 63
  %37 = or disjoint i8 %36, %34
  store i8 %37, ptr %22, align 1, !tbaa !14
  br label %113

38:                                               ; preds = %17
  %39 = icmp samesign ult i8 %8, -16
  br i1 %39, label %40, label %70

40:                                               ; preds = %38
  %41 = icmp slt i32 %1, 3
  br i1 %41, label %113, label %42

42:                                               ; preds = %40
  %43 = getelementptr inbounds nuw i8, ptr %0, i64 2
  %44 = load i8, ptr %43, align 1, !tbaa !14
  %45 = and i8 %44, 63
  %46 = zext nneg i8 %45 to i32
  %47 = getelementptr inbounds nuw i8, ptr %0, i64 1
  %48 = load i8, ptr %47, align 1, !tbaa !14
  %49 = and i8 %48, 63
  %50 = zext nneg i8 %49 to i32
  %51 = shl nuw nsw i32 %50, 6
  %52 = shl nuw nsw i32 %9, 12
  %53 = and i32 %52, 61440
  %54 = add nuw nsw i32 %53, %7
  %55 = add nuw nsw i32 %54, %46
  %56 = add nuw nsw i32 %55, %51
  %57 = lshr i32 %56, 12
  %58 = trunc i32 %57 to i8
  %59 = and i8 %58, 15
  %60 = or disjoint i8 %59, -32
  store i8 %60, ptr %0, align 1, !tbaa !14
  %61 = and i8 %48, -64
  %62 = lshr i32 %56, 6
  %63 = trunc i32 %62 to i8
  %64 = and i8 %63, 63
  %65 = or disjoint i8 %64, %61
  store i8 %65, ptr %47, align 1, !tbaa !14
  %66 = and i8 %44, -64
  %67 = trunc i32 %55 to i8
  %68 = and i8 %67, 63
  %69 = or disjoint i8 %68, %66
  store i8 %69, ptr %43, align 1, !tbaa !14
  br label %113

70:                                               ; preds = %38
  %71 = icmp samesign ult i8 %8, -8
  br i1 %71, label %72, label %113

72:                                               ; preds = %70
  %73 = icmp slt i32 %1, 4
  br i1 %73, label %113, label %74

74:                                               ; preds = %72
  %75 = getelementptr inbounds nuw i8, ptr %0, i64 3
  %76 = load i8, ptr %75, align 1, !tbaa !14
  %77 = and i8 %76, 63
  %78 = zext nneg i8 %77 to i32
  %79 = getelementptr inbounds nuw i8, ptr %0, i64 2
  %80 = load i8, ptr %79, align 1, !tbaa !14
  %81 = and i8 %80, 63
  %82 = zext nneg i8 %81 to i32
  %83 = shl nuw nsw i32 %82, 6
  %84 = getelementptr inbounds nuw i8, ptr %0, i64 1
  %85 = load i8, ptr %84, align 1, !tbaa !14
  %86 = and i8 %85, 63
  %87 = zext nneg i8 %86 to i32
  %88 = shl nuw nsw i32 %87, 12
  %89 = shl nuw nsw i32 %9, 18
  %90 = and i32 %89, 1835008
  %91 = add nuw nsw i32 %90, %7
  %92 = add nuw nsw i32 %91, %78
  %93 = add nuw nsw i32 %92, %83
  %94 = add nuw nsw i32 %93, %88
  %95 = lshr i32 %94, 18
  %96 = trunc nuw nsw i32 %95 to i8
  %97 = and i8 %96, 7
  %98 = or disjoint i8 %97, -16
  store i8 %98, ptr %0, align 1, !tbaa !14
  %99 = and i8 %85, -64
  %100 = lshr i32 %94, 12
  %101 = trunc i32 %100 to i8
  %102 = and i8 %101, 63
  %103 = or disjoint i8 %102, %99
  store i8 %103, ptr %84, align 1, !tbaa !14
  %104 = and i8 %80, -64
  %105 = lshr i32 %93, 6
  %106 = trunc i32 %105 to i8
  %107 = and i8 %106, 63
  %108 = or disjoint i8 %107, %104
  store i8 %108, ptr %79, align 1, !tbaa !14
  %109 = and i8 %76, -64
  %110 = trunc i32 %92 to i8
  %111 = and i8 %110, 63
  %112 = or disjoint i8 %111, %109
  store i8 %112, ptr %75, align 1, !tbaa !14
  br label %113

113:                                              ; preds = %70, %72, %40, %19, %15, %74, %42, %21, %11
  %.0 = phi i32 [ 1, %11 ], [ 2, %21 ], [ 3, %42 ], [ 4, %74 ], [ 1, %15 ], [ 1, %19 ], [ %1, %40 ], [ %1, %72 ], [ 1, %70 ]
  ret i32 %.0
}